target datalayout = "e-m:e-p270:32:32-p271:32:32-p272:64:64-i64:64-i128:128-f80:128-n8:16:32:64-S128"
target triple = "x86_64-pc-linux-gnu"

%struct.Gpr_t = type { ptr, ptr, ptr, ptr, ptr, ptr, ptr, ptr, ptr, ptr, ptr, i32, ptr, ptr, ptr, i32, i32, ptr, i32, ptr, i64, [1 x %struct.__jmp_buf_tag] }
%struct.__jmp_buf_tag = type { [8 x i64], i32, %struct.__sigset_t }
%struct.__sigset_t = type { [16 x i64] }
%struct.gpr_info = type { ptr, i32, ptr, ptr, ptr, i32 }

@.str.1 = private unnamed_addr constant [43 x i8] c"Could not create gvpr state: out of memory\00", align 1
@name_used = internal global i32 0, align 4

; Function Attrs: nounwind uwtable
define ptr @openGPRState(ptr noundef %0) #0 {
  %2 = alloca ptr, align 8
  %3 = alloca ptr, align 8
  %4 = alloca ptr, align 8
  %5 = alloca i32, align 4
  store ptr %0, ptr %3, align 8, !tbaa !7
  call void @llvm.lifetime.start.p0(i64 8, ptr %4) #10
  %6 = call noalias ptr @calloc(i64 noundef 1, i64 noundef 360) #11
  store ptr %6, ptr %4, align 8, !tbaa !7
  %7 = icmp ne ptr %6, null
  br i1 %7, label %10, label %8

8:                                                ; preds = %1
  call void (i32, ptr, ...) @error(i32 noundef 2, ptr noundef @.str.1)
  %9 = load ptr, ptr %4, align 8, !tbaa !7
  store ptr %9, ptr %2, align 8
  store i32 1, ptr %5, align 4
  br label %48

10:                                               ; preds = %1
  %11 = load ptr, ptr %4, align 8, !tbaa !7
  %12 = getelementptr inbounds nuw %struct.Gpr_t, ptr %11, i32 0, i32 11
  store i32 0, ptr %12, align 8, !tbaa !21
  %13 = load i32, ptr @name_used, align 4, !tbaa !22
  %14 = load ptr, ptr %4, align 8, !tbaa !7
  %15 = getelementptr inbounds nuw %struct.Gpr_t, ptr %14, i32 0, i32 15
  store i32 %13, ptr %15, align 8, !tbaa !23
  %16 = load ptr, ptr %4, align 8, !tbaa !7
  %17 = getelementptr inbounds nuw %struct.Gpr_t, ptr %16, i32 0, i32 12
  store ptr null, ptr %17, align 8, !tbaa !24
  %18 = load ptr, ptr %4, align 8, !tbaa !7
  %19 = getelementptr inbounds nuw %struct.Gpr_t, ptr %18, i32 0, i32 13
  store ptr null, ptr %19, align 8, !tbaa !25
  %20 = load ptr, ptr %4, align 8, !tbaa !7
  %21 = getelementptr inbounds nuw %struct.Gpr_t, ptr %20, i32 0, i32 14
  store ptr null, ptr %21, align 8, !tbaa !26
  %22 = load ptr, ptr %3, align 8, !tbaa !7
  %23 = getelementptr inbounds nuw %struct.gpr_info, ptr %22, i32 0, i32 0
  %24 = load ptr, ptr %23, align 8, !tbaa !27
  %25 = load ptr, ptr %4, align 8, !tbaa !7
  %26 = getelementptr inbounds nuw %struct.Gpr_t, ptr %25, i32 0, i32 10
  store ptr %24, ptr %26, align 8, !tbaa !29
  %27 = load ptr, ptr %3, align 8, !tbaa !7
  %28 = getelementptr inbounds nuw %struct.gpr_info, ptr %27, i32 0, i32 1
  %29 = load i32, ptr %28, align 8, !tbaa !30
  %30 = load ptr, ptr %4, align 8, !tbaa !7
  %31 = getelementptr inbounds nuw %struct.Gpr_t, ptr %30, i32 0, i32 16
  store i32 %29, ptr %31, align 4, !tbaa !31
  %32 = load ptr, ptr %3, align 8, !tbaa !7
  %33 = getelementptr inbounds nuw %struct.gpr_info, ptr %32, i32 0, i32 2
  %34 = load ptr, ptr %33, align 8, !tbaa !32
  %35 = load ptr, ptr %4, align 8, !tbaa !7
  %36 = getelementptr inbounds nuw %struct.Gpr_t, ptr %35, i32 0, i32 17
  store ptr %34, ptr %36, align 8, !tbaa !33
  %37 = load ptr, ptr %3, align 8, !tbaa !7
  %38 = getelementptr inbounds nuw %struct.gpr_info, ptr %37, i32 0, i32 3
  %39 = load ptr, ptr %38, align 8, !tbaa !34
  %40 = load ptr, ptr %4, align 8, !tbaa !7
  %41 = getelementptr inbounds nuw %struct.Gpr_t, ptr %40, i32 0, i32 6
  store ptr %39, ptr %41, align 8, !tbaa !35
  %42 = load ptr, ptr %3, align 8, !tbaa !7
  %43 = getelementptr inbounds nuw %struct.gpr_info, ptr %42, i32 0, i32 5
  %44 = load i32, ptr %43, align 8, !tbaa !36
  %45 = load ptr, ptr %4, align 8, !tbaa !7
  %46 = getelementptr inbounds nuw %struct.Gpr_t, ptr %45, i32 0, i32 18
  store i32 %44, ptr %46, align 8, !tbaa !37
  %47 = load ptr, ptr %4, align 8, !tbaa !7
  store ptr %47, ptr %2, align 8
  store i32 1, ptr %5, align 4
  br label %48

48:                                               ; preds = %10, %8
  call void @llvm.lifetime.end.p0(i64 8, ptr %4) #10
  %49 = load ptr, ptr %2, align 8
  ret ptr %49
}