; Function Attrs: nounwind uwtable
define noalias noundef ptr @openGPRState(ptr noundef readonly captures(none) %0) local_unnamed_addr #3 {
  %2 = tail call noalias dereferenceable_or_null(360) ptr @calloc(i64 noundef 1, i64 noundef 360) #17
  %.not = icmp eq ptr %2, null
  br i1 %.not, label %3, label %4

3:                                                ; preds = %1
  tail call void (i32, ptr, ...) @error(i32 noundef 2, ptr noundef nonnull @.str.1) #16
  br label %21

4:                                                ; preds = %1
  %5 = load i32, ptr @name_used, align 4, !tbaa !18
  %6 = getelementptr inbounds nuw i8, ptr %2, i64 120
  store i32 %5, ptr %6, align 8, !tbaa !19
  %7 = load ptr, ptr %0, align 8, !tbaa !20
  %8 = getelementptr inbounds nuw i8, ptr %2, i64 80
  store ptr %7, ptr %8, align 8, !tbaa !22
  %9 = getelementptr inbounds nuw i8, ptr %0, i64 8
  %10 = load i32, ptr %9, align 8, !tbaa !23
  %11 = getelementptr inbounds nuw i8, ptr %2, i64 124
  store i32 %10, ptr %11, align 4, !tbaa !24
  %12 = getelementptr inbounds nuw i8, ptr %0, i64 16
  %13 = load ptr, ptr %12, align 8, !tbaa !25
  %14 = getelementptr inbounds nuw i8, ptr %2, i64 128
  store ptr %13, ptr %14, align 8, !tbaa !26
  %15 = getelementptr inbounds nuw i8, ptr %0, i64 24
  %16 = load ptr, ptr %15, align 8, !tbaa !27
  %17 = getelementptr inbounds nuw i8, ptr %2, i64 48
  store ptr %16, ptr %17, align 8, !tbaa !28
  %18 = getelementptr inbounds nuw i8, ptr %0, i64 40
  %19 = load i32, ptr %18, align 8, !tbaa !29
  %20 = getelementptr inbounds nuw i8, ptr %2, i64 136
  store i32 %19, ptr %20, align 8, !tbaa !30
  br label %21

21:                                               ; preds = %4, %3
  ret ptr %2
}